target datalayout = "e-m:e-p270:32:32-p271:32:32-p272:64:64-i64:64-i128:128-f80:128-n8:16:32:64-S128"
target triple = "x86_64-pc-linux-gnu"

%class.ClassVerifier = type { ptr, ptr, ptr, ptr, ptr, %class.ResourceHashtable, %class.ErrorContext, ptr, %class.methodHandle, %class.VerificationType }
%class.ResourceHashtable = type { %class.ResourceHashtableBase.base, [4 x i8] }
%class.ResourceHashtableBase.base = type <{ %class.FixedResourceHashtableStorage, i32 }>
%class.FixedResourceHashtableStorage = type { [1007 x ptr] }
%class.ErrorContext = type { i32, i32, %class.TypeOrigin, %class.TypeOrigin }
%class.TypeOrigin = type { i32, i32, ptr, %class.VerificationType }
%class.methodHandle = type { ptr, ptr }
%class.VerificationType = type { %union.anon.3 }
%union.anon.3 = type { ptr }
%class.ThreadShadow = type <{ ptr, ptr, ptr, i32, [4 x i8] }>
%class.StackMapFrame = type { i32, i32, i32, i32, i16, i16, i8, ptr, ptr, ptr }

@.str.181 = private unnamed_addr constant [23 x i8] c"Operand stack overflow\00", align 1

; Function Attrs: mustprogress nounwind uwtable
define linkonce_odr hidden void @_ZN16VerificationTypeC2Ev(ptr noundef nonnull align 8 dereferenceable(8) %0) unnamed_addr #1 comdat align 2 {
  %2 = alloca ptr, align 8
  %3 = alloca %class.VerificationType, align 8
  store ptr %0, ptr %2, align 8
  %4 = load ptr, ptr %2, align 8
  %5 = call ptr @_ZN16VerificationType10bogus_typeEv()
  %6 = getelementptr inbounds %class.VerificationType, ptr %3, i32 0, i32 0
  %7 = getelementptr inbounds %union.anon.3, ptr %6, i32 0, i32 0
  store ptr %5, ptr %7, align 8
  call void @llvm.memcpy.p0.p0.i64(ptr align 8 %4, ptr align 8 %3, i64 8, i1 false)
  ret void
}

; Function Attrs: mustprogress nounwind uwtable
define linkonce_odr hidden noundef ptr @_ZN11ResourceObjnwEm(i64 noundef %0) #1 comdat align 2 {
  %2 = alloca i64, align 8
  store i64 %0, ptr %2, align 8
  %3 = load i64, ptr %2, align 8
  %4 = call noundef ptr @_Z23resource_allocate_bytesmN17AllocFailStrategy13AllocFailEnumE(i64 noundef %3, i32 noundef 0)
  ret ptr %4
}

; Function Attrs: mustprogress nounwind uwtable
define linkonce_odr hidden void @_ZN10TypeOriginC2Ev(ptr noundef nonnull align 8 dereferenceable(24) %0) unnamed_addr #1 comdat align 2 {
  %2 = alloca ptr, align 8
  store ptr %0, ptr %2, align 8
  %3 = load ptr, ptr %2, align 8
  %4 = getelementptr inbounds %class.TypeOrigin, ptr %3, i32 0, i32 0
  store i32 9, ptr %4, align 8
  %5 = getelementptr inbounds %class.TypeOrigin, ptr %3, i32 0, i32 1
  store i32 0, ptr %5, align 4
  %6 = getelementptr inbounds %class.TypeOrigin, ptr %3, i32 0, i32 2
  store ptr null, ptr %6, align 8
  %7 = getelementptr inbounds %class.TypeOrigin, ptr %3, i32 0, i32 3
  call void @_ZN16VerificationTypeC2Ev(ptr noundef nonnull align 8 dereferenceable(8) %7)
  ret void
}

; Function Attrs: mustprogress nounwind uwtable
define linkonce_odr hidden void @_ZN10TypeOriginC2ENS_6OriginEiP13StackMapFrame16VerificationType(ptr noundef nonnull align 8 dereferenceable(24) %0, i32 noundef %1, i32 noundef %2, ptr noundef %3, ptr %4) unnamed_addr #1 comdat align 2 {
  %6 = alloca %class.VerificationType, align 8
  %7 = alloca ptr, align 8
  %8 = alloca i32, align 4
  %9 = alloca i32, align 4
  %10 = alloca ptr, align 8
  %11 = getelementptr inbounds %class.VerificationType, ptr %6, i32 0, i32 0
  %12 = getelementptr inbounds %union.anon.3, ptr %11, i32 0, i32 0
  store ptr %4, ptr %12, align 8
  store ptr %0, ptr %7, align 8
  store i32 %1, ptr %8, align 4
  store i32 %2, ptr %9, align 4
  store ptr %3, ptr %10, align 8
  %13 = load ptr, ptr %7, align 8
  %14 = getelementptr inbounds %class.TypeOrigin, ptr %13, i32 0, i32 0
  %15 = load i32, ptr %8, align 4
  store i32 %15, ptr %14, align 8
  %16 = getelementptr inbounds %class.TypeOrigin, ptr %13, i32 0, i32 1
  %17 = load i32, ptr %9, align 4
  store i32 %17, ptr %16, align 4
  %18 = getelementptr inbounds %class.TypeOrigin, ptr %13, i32 0, i32 2
  %19 = load ptr, ptr %10, align 8
  store ptr %19, ptr %18, align 8
  %20 = getelementptr inbounds %class.TypeOrigin, ptr %13, i32 0, i32 3
  call void @llvm.memcpy.p0.p0.i64(ptr align 8 %20, ptr align 8 %6, i64 8, i1 false)
  ret void
}

; Function Attrs: mustprogress nounwind uwtable
define linkonce_odr hidden ptr @_ZN16VerificationType10bogus_typeEv() #1 comdat align 2 {
  %1 = alloca %class.VerificationType, align 8
  call void @_ZN16VerificationTypeC2Em(ptr noundef nonnull align 8 dereferenceable(8) %1, i64 noundef 4294901761)
  %2 = getelementptr inbounds %class.VerificationType, ptr %1, i32 0, i32 0
  %3 = getelementptr inbounds %union.anon.3, ptr %2, i32 0, i32 0
  %4 = load ptr, ptr %3, align 8
  ret ptr %4
}

; Function Attrs: mustprogress nounwind uwtable
define linkonce_odr hidden noundef ptr @_ZN13StackMapFrame4copyEPS_(ptr noundef %0) #1 comdat align 2 {
  %2 = alloca ptr, align 8
  store ptr %0, ptr %2, align 8
  %3 = call noundef ptr @_ZN11ResourceObjnwEm(i64 noundef 48)
  %4 = load ptr, ptr %2, align 8
  call void @_ZN13StackMapFrameC2ERKS_(ptr noundef nonnull align 8 dereferenceable(48) %3, ptr noundef nonnull align 8 dereferenceable(48) %4)
  ret ptr %3
}

; Function Attrs: mustprogress nounwind uwtable
define linkonce_odr hidden void @_ZN12ErrorContextC2EiNS_9FaultTypeE10TypeOrigin(ptr noundef nonnull align 8 dereferenceable(56) %0, i32 noundef %1, i32 noundef %2, ptr noundef byval(%class.TypeOrigin) align 8 %3) unnamed_addr #1 comdat align 2 {
  %5 = alloca ptr, align 8
  %6 = alloca i32, align 4
  %7 = alloca i32, align 4
  store ptr %0, ptr %5, align 8
  store i32 %1, ptr %6, align 4
  store i32 %2, ptr %7, align 4
  %8 = load ptr, ptr %5, align 8
  %9 = getelementptr inbounds %class.ErrorContext, ptr %8, i32 0, i32 0
  %10 = load i32, ptr %6, align 4
  store i32 %10, ptr %9, align 8
  %11 = getelementptr inbounds %class.ErrorContext, ptr %8, i32 0, i32 1
  %12 = load i32, ptr %7, align 4
  store i32 %12, ptr %11, align 4
  %13 = getelementptr inbounds %class.ErrorContext, ptr %8, i32 0, i32 2
  call void @llvm.memcpy.p0.p0.i64(ptr align 8 %13, ptr align 8 %3, i64 24, i1 false)
  %14 = getelementptr inbounds %class.ErrorContext, ptr %8, i32 0, i32 3
  call void @_ZN10TypeOriginC2Ev(ptr noundef nonnull align 8 dereferenceable(24) %14)
  ret void
}

; Function Attrs: mustprogress nounwind uwtable
define hidden void @_ZN10TypeOrigin5frameEP13StackMapFrame(ptr dead_on_unwind noalias writable sret(%class.TypeOrigin) align 8 %0, ptr noundef %1) #1 align 2 {
  %3 = alloca ptr, align 8
  %4 = alloca %class.VerificationType, align 8
  store ptr %1, ptr %3, align 8
  %5 = load ptr, ptr %3, align 8
  %6 = call noundef ptr @_ZN13StackMapFrame4copyEPS_(ptr noundef %5)
  %7 = call ptr @_ZN16VerificationType10bogus_typeEv()
  %8 = getelementptr inbounds %class.VerificationType, ptr %4, i32 0, i32 0
  %9 = getelementptr inbounds %union.anon.3, ptr %8, i32 0, i32 0
  store ptr %7, ptr %9, align 8
  %10 = getelementptr inbounds %class.VerificationType, ptr %4, i32 0, i32 0
  %11 = getelementptr inbounds %union.anon.3, ptr %10, i32 0, i32 0
  %12 = load ptr, ptr %11, align 8
  call void @_ZN10TypeOriginC2ENS_6OriginEiP13StackMapFrame16VerificationType(ptr noundef nonnull align 8 dereferenceable(24) %0, i32 noundef 8, i32 noundef 0, ptr noundef %6, ptr %12)
  ret void
}

; Function Attrs: mustprogress nounwind uwtable
define linkonce_odr hidden void @_ZN12ErrorContext14stack_overflowEiP13StackMapFrame(ptr dead_on_unwind noalias writable sret(%class.ErrorContext) align 8 %0, i32 noundef %1, ptr noundef %2) #1 comdat align 2 {
  %4 = alloca i32, align 4
  %5 = alloca ptr, align 8
  %6 = alloca %class.TypeOrigin, align 8
  store i32 %1, ptr %4, align 4
  store ptr %2, ptr %5, align 8
  %7 = load i32, ptr %4, align 4
  %8 = load ptr, ptr %5, align 8
  call void @_ZN10TypeOrigin5frameEP13StackMapFrame(ptr dead_on_unwind writable sret(%class.TypeOrigin) align 8 %6, ptr noundef %8)
  call void @_ZN12ErrorContextC2EiNS_9FaultTypeE10TypeOrigin(ptr noundef nonnull align 8 dereferenceable(56) %0, i32 noundef %7, i32 noundef 7, ptr noundef byval(%class.TypeOrigin) align 8 %6)
  ret void
}

; Function Attrs: mustprogress nounwind uwtable
define linkonce_odr hidden noundef ptr @_ZNK13StackMapFrame8verifierEv(ptr noundef nonnull align 8 dereferenceable(48) %0) #1 comdat align 2 {
  %2 = alloca ptr, align 8
  store ptr %0, ptr %2, align 8
  %3 = load ptr, ptr %2, align 8
  %4 = getelementptr inbounds %class.StackMapFrame, ptr %3, i32 0, i32 9
  %5 = load ptr, ptr %4, align 8
  ret ptr %5
}

; Function Attrs: mustprogress nounwind uwtable
define linkonce_odr hidden noundef ptr @_ZNK13ClassVerifier6resultEv(ptr noundef nonnull align 8 dereferenceable(8192) %0) #1 comdat align 2 {
  %2 = alloca ptr, align 8
  store ptr %0, ptr %2, align 8
  %3 = load ptr, ptr %2, align 8
  %4 = getelementptr inbounds %class.ClassVerifier, ptr %3, i32 0, i32 3
  %5 = load ptr, ptr %4, align 8
  ret ptr %5
}

; Function Attrs: mustprogress nounwind uwtable
define linkonce_odr hidden void @_ZN16VerificationTypeC2Em(ptr noundef nonnull align 8 dereferenceable(8) %0, i64 noundef %1) unnamed_addr #1 comdat align 2 {
  %3 = alloca ptr, align 8
  %4 = alloca i64, align 8
  store ptr %0, ptr %3, align 8
  store i64 %1, ptr %4, align 8
  %5 = load ptr, ptr %3, align 8
  %6 = load i64, ptr %4, align 8
  %7 = getelementptr inbounds %class.VerificationType, ptr %5, i32 0, i32 0
  store i64 %6, ptr %7, align 8
  ret void
}

; Function Attrs: mustprogress nounwind uwtable
define linkonce_odr hidden void @_ZN13StackMapFrame10push_stackE16VerificationTypeP10JavaThread(ptr noundef nonnull align 8 dereferenceable(48) %0, ptr %1, ptr noundef %2) #1 comdat align 2 {
  %4 = alloca %class.VerificationType, align 8
  %5 = alloca ptr, align 8
  %6 = alloca ptr, align 8
  %7 = alloca %class.ErrorContext, align 8
  %8 = getelementptr inbounds %class.VerificationType, ptr %4, i32 0, i32 0
  %9 = getelementptr inbounds %union.anon.3, ptr %8, i32 0, i32 0
  store ptr %1, ptr %9, align 8
  store ptr %0, ptr %5, align 8
  store ptr %2, ptr %6, align 8
  %10 = load ptr, ptr %5, align 8
  %11 = getelementptr inbounds %class.StackMapFrame, ptr %10, i32 0, i32 2
  %12 = load i32, ptr %11, align 8
  %13 = getelementptr inbounds %class.StackMapFrame, ptr %10, i32 0, i32 5
  %14 = load i16, ptr %13, align 2
  %15 = zext i16 %14 to i32
  %16 = icmp sge i32 %12, %15
  br i1 %16, label %17, label %21

17:                                               ; preds = %3
  %18 = call noundef ptr @_ZNK13StackMapFrame8verifierEv(ptr noundef nonnull align 8 dereferenceable(48) %10)
  %19 = getelementptr inbounds %class.StackMapFrame, ptr %10, i32 0, i32 0
  %20 = load i32, ptr %19, align 8
  call void @_ZN12ErrorContext14stack_overflowEiP13StackMapFrame(ptr dead_on_unwind writable sret(%class.ErrorContext) align 8 %7, i32 noundef %20, ptr noundef %10)
  call void (ptr, ptr, ptr, ...) @_ZN13ClassVerifier12verify_errorE12ErrorContextPKcz(ptr noundef nonnull align 8 dereferenceable(8192) %18, ptr noundef byval(%class.ErrorContext) align 8 %7, ptr noundef @.str.181)
  br label %29

21:                                               ; preds = %3
  %22 = getelementptr inbounds %class.StackMapFrame, ptr %10, i32 0, i32 8
  %23 = load ptr, ptr %22, align 8
  %24 = getelementptr inbounds %class.StackMapFrame, ptr %10, i32 0, i32 2
  %25 = load i32, ptr %24, align 8
  %26 = add nsw i32 %25, 1
  store i32 %26, ptr %24, align 8
  %27 = sext i32 %25 to i64
  %28 = getelementptr inbounds %class.VerificationType, ptr %23, i64 %27
  call void @llvm.memcpy.p0.p0.i64(ptr align 8 %28, ptr align 8 %4, i64 8, i1 false)
  br label %29

29:                                               ; preds = %21, %17
  ret void
}

; Function Attrs: mustprogress nounwind uwtable
define linkonce_odr hidden noundef zeroext i1 @_ZNK13ClassVerifier9has_errorEv(ptr noundef nonnull align 8 dereferenceable(8192) %0) #1 comdat align 2 {
  %2 = alloca ptr, align 8
  store ptr %0, ptr %2, align 8
  %3 = load ptr, ptr %2, align 8
  %4 = call noundef ptr @_ZNK13ClassVerifier6resultEv(ptr noundef nonnull align 8 dereferenceable(8192) %3)
  %5 = icmp ne ptr %4, null
  ret i1 %5
}

; Function Attrs: mustprogress nounwind uwtable
define linkonce_odr hidden noundef zeroext i1 @_ZNK12ThreadShadow21has_pending_exceptionEv(ptr noundef nonnull align 8 dereferenceable(28) %0) #1 comdat align 2 {
  %2 = alloca ptr, align 8
  store ptr %0, ptr %2, align 8
  %3 = load ptr, ptr %2, align 8
  %4 = getelementptr inbounds %class.ThreadShadow, ptr %3, i32 0, i32 1
  %5 = load ptr, ptr %4, align 8
  %6 = icmp ne ptr %5, null
  ret i1 %6
}

; Function Attrs: mustprogress nounwind uwtable
define linkonce_odr hidden ptr @_ZN16VerificationType10float_typeEv() #1 comdat align 2 {
  %1 = alloca %class.VerificationType, align 8
  call void @_ZN16VerificationTypeC2Em(ptr noundef nonnull align 8 dereferenceable(8) %1, i64 noundef 131329)
  %2 = getelementptr inbounds %class.VerificationType, ptr %1, i32 0, i32 0
  %3 = getelementptr inbounds %union.anon.3, ptr %2, i32 0, i32 0
  %4 = load ptr, ptr %3, align 8
  ret ptr %4
}

; Function Attrs: mustprogress nounwind uwtable
define hidden void @_ZN13ClassVerifier12verify_floadEiP13StackMapFrameP10JavaThread(ptr noundef nonnull align 8 dereferenceable(8192) %0, i32 noundef %1, ptr noundef %2, ptr noundef %3) #1 align 2 {
  %5 = alloca ptr, align 8
  %6 = alloca i32, align 4
  %7 = alloca ptr, align 8
  %8 = alloca ptr, align 8
  %9 = alloca %class.VerificationType, align 8
  %10 = alloca %class.VerificationType, align 8
  %11 = alloca %class.VerificationType, align 8
  store ptr %0, ptr %5, align 8
  store i32 %1, ptr %6, align 4
  store ptr %2, ptr %7, align 8
  store ptr %3, ptr %8, align 8
  %12 = load ptr, ptr %5, align 8
  %13 = load ptr, ptr %7, align 8
  %14 = load i32, ptr %6, align 4
  %15 = call ptr @_ZN16VerificationType10float_typeEv()
  %16 = getelementptr inbounds %class.VerificationType, ptr %9, i32 0, i32 0
  %17 = getelementptr inbounds %union.anon.3, ptr %16, i32 0, i32 0
  store ptr %15, ptr %17, align 8
  %18 = load ptr, ptr %8, align 8
  %19 = getelementptr inbounds %class.VerificationType, ptr %9, i32 0, i32 0
  %20 = getelementptr inbounds %union.anon.3, ptr %19, i32 0, i32 0
  %21 = load ptr, ptr %20, align 8
  %22 = call ptr @_ZN13StackMapFrame9get_localEi16VerificationTypeP10JavaThread(ptr noundef nonnull align 8 dereferenceable(48) %13, i32 noundef %14, ptr %21, ptr noundef %18)
  %23 = getelementptr inbounds %class.VerificationType, ptr %10, i32 0, i32 0
  %24 = getelementptr inbounds %union.anon.3, ptr %23, i32 0, i32 0
  store ptr %22, ptr %24, align 8
  %25 = load ptr, ptr %8, align 8
  %26 = call noundef zeroext i1 @_ZNK12ThreadShadow21has_pending_exceptionEv(ptr noundef nonnull align 8 dereferenceable(28) %25)
  br i1 %26, label %27, label %28

27:                                               ; preds = %4
  br label %46

28:                                               ; preds = %4
  %29 = call noundef zeroext i1 @_ZNK13ClassVerifier9has_errorEv(ptr noundef nonnull align 8 dereferenceable(8192) %12)
  br i1 %29, label %30, label %31

30:                                               ; preds = %28
  br label %46

31:                                               ; preds = %28
  %32 = load ptr, ptr %7, align 8
  %33 = call ptr @_ZN16VerificationType10float_typeEv()
  %34 = getelementptr inbounds %class.VerificationType, ptr %11, i32 0, i32 0
  %35 = getelementptr inbounds %union.anon.3, ptr %34, i32 0, i32 0
  store ptr %33, ptr %35, align 8
  %36 = load ptr, ptr %8, align 8
  %37 = getelementptr inbounds %class.VerificationType, ptr %11, i32 0, i32 0
  %38 = getelementptr inbounds %union.anon.3, ptr %37, i32 0, i32 0
  %39 = load ptr, ptr %38, align 8
  call void @_ZN13StackMapFrame10push_stackE16VerificationTypeP10JavaThread(ptr noundef nonnull align 8 dereferenceable(48) %32, ptr %39, ptr noundef %36)
  %40 = load ptr, ptr %8, align 8
  %41 = call noundef zeroext i1 @_ZNK12ThreadShadow21has_pending_exceptionEv(ptr noundef nonnull align 8 dereferenceable(28) %40)
  br i1 %41, label %42, label %43

42:                                               ; preds = %31
  br label %46

43:                                               ; preds = %31
  %44 = call noundef zeroext i1 @_ZNK13ClassVerifier9has_errorEv(ptr noundef nonnull align 8 dereferenceable(8192) %12)
  br i1 %44, label %45, label %46

45:                                               ; preds = %43
  br label %46

46:                                               ; preds = %45, %43, %42, %30, %27
  ret void
}