; Function Attrs: mustprogress nounwind uwtable
define hidden void @_ZN13ClassVerifier12verify_floadEiP13StackMapFrameP10JavaThread(ptr nocapture noundef nonnull readonly align 8 dereferenceable(8192) %0, i32 noundef %1, ptr noundef nonnull %2, ptr noundef %3) local_unnamed_addr #1 align 2 {
  %5 = alloca %class.ErrorContext, align 8
  %6 = tail call ptr @_ZN13StackMapFrame9get_localEi16VerificationTypeP10JavaThread(ptr noundef nonnull align 8 dereferenceable(48) %2, i32 noundef %1, ptr nonnull inttoptr (i64 131329 to ptr), ptr noundef %3) #20
  %7 = getelementptr inbounds i8, ptr %3, i64 8
  %8 = load ptr, ptr %7, align 8
  %.not = icmp eq ptr %8, null
  %9 = getelementptr inbounds i8, ptr %0, i64 24
  %10 = load ptr, ptr %9, align 8
  %.not9 = icmp eq ptr %10, null
  %or.cond = select i1 %.not, i1 %.not9, i1 false
  br i1 %or.cond, label %11, label %34

11:                                               ; preds = %4
  call void @llvm.lifetime.start.p0(i64 56, ptr nonnull %5)
  %12 = getelementptr inbounds i8, ptr %2, i64 8
  %13 = load i32, ptr %12, align 8
  %14 = getelementptr inbounds i8, ptr %2, i64 18
  %15 = load i16, ptr %14, align 2
  %16 = zext i16 %15 to i32
  %.not.i = icmp slt i32 %13, %16
  br i1 %.not.i, label %28, label %17

17:                                               ; preds = %11
  %18 = getelementptr inbounds i8, ptr %2, i64 40
  %19 = load ptr, ptr %18, align 8
  %20 = load i32, ptr %2, align 8
  tail call void @llvm.experimental.noalias.scope.decl(metadata !230)
  %21 = tail call noundef ptr @_Z23resource_allocate_bytesmN17AllocFailStrategy13AllocFailEnumE(i64 noundef 48, i32 noundef 0) #20, !noalias !233
  tail call void @_ZN13StackMapFrameC2ERKS_(ptr noundef nonnull align 8 dereferenceable(48) %21, ptr noundef nonnull align 8 dereferenceable(48) %2), !noalias !233
  store i32 %20, ptr %5, align 8, !alias.scope !230
  %22 = getelementptr inbounds i8, ptr %5, i64 4
  store i32 7, ptr %22, align 4, !alias.scope !230
  %23 = getelementptr inbounds i8, ptr %5, i64 8
  store i32 8, ptr %23, align 8, !alias.scope !230
  %.sroa.42.0..sroa_idx.i.i = getelementptr inbounds i8, ptr %5, i64 12
  store i32 0, ptr %.sroa.42.0..sroa_idx.i.i, align 4, !alias.scope !230
  %.sroa.5.0..sroa_idx.i.i = getelementptr inbounds i8, ptr %5, i64 16
  store ptr %21, ptr %.sroa.5.0..sroa_idx.i.i, align 8, !alias.scope !230
  %.sroa.6.0..sroa_idx.i.i = getelementptr inbounds i8, ptr %5, i64 24
  store ptr inttoptr (i64 4294901761 to ptr), ptr %.sroa.6.0..sroa_idx.i.i, align 8, !alias.scope !230
  %24 = getelementptr inbounds i8, ptr %5, i64 32
  store i32 9, ptr %24, align 8, !alias.scope !230
  %25 = getelementptr inbounds i8, ptr %5, i64 36
  store i32 0, ptr %25, align 4, !alias.scope !230
  %26 = getelementptr inbounds i8, ptr %5, i64 40
  store ptr null, ptr %26, align 8, !alias.scope !230
  %27 = getelementptr inbounds i8, ptr %5, i64 48
  store ptr inttoptr (i64 4294901761 to ptr), ptr %27, align 8, !alias.scope !230
  tail call void (ptr, ptr, ptr, ...) @_ZN13ClassVerifier12verify_errorE12ErrorContextPKcz(ptr noundef nonnull align 8 dereferenceable(8192) %19, ptr noundef nonnull byval(%class.ErrorContext) align 8 %5, ptr noundef nonnull @.str.181)
  br label %_ZN13StackMapFrame10push_stackE16VerificationTypeP10JavaThread.exit

28:                                               ; preds = %11
  %29 = getelementptr inbounds i8, ptr %2, i64 32
  %30 = load ptr, ptr %29, align 8
  %31 = add nsw i32 %13, 1
  store i32 %31, ptr %12, align 8
  %32 = sext i32 %13 to i64
  %33 = getelementptr inbounds %class.VerificationType, ptr %30, i64 %32
  store ptr inttoptr (i64 131329 to ptr), ptr %33, align 8
  br label %_ZN13StackMapFrame10push_stackE16VerificationTypeP10JavaThread.exit

_ZN13StackMapFrame10push_stackE16VerificationTypeP10JavaThread.exit: ; preds = %17, %28
  call void @llvm.lifetime.end.p0(i64 56, ptr nonnull %5)
  br label %34

34:                                               ; preds = %_ZN13StackMapFrame10push_stackE16VerificationTypeP10JavaThread.exit, %4
  ret void
}